; Function Attrs: nounwind uwtable
define dso_local ptr @data_key_get_const(ptr noundef readonly captures(address_is_null) %0, ptr noundef %1) local_unnamed_addr #0 {
  %.not = icmp eq ptr %0, null
  %.not18 = icmp eq ptr %1, null
  %or.cond = or i1 %.not, %.not18
  br i1 %or.cond, label %.critedge, label %3

3:                                                ; preds = %2
  %4 = getelementptr inbounds nuw i8, ptr %0, i64 4
  %5 = load i32, ptr %4, align 4
  %.not19 = icmp eq i32 %5, 65283
  br i1 %.not19, label %6, label %.critedge

6:                                                ; preds = %3
  %7 = getelementptr inbounds nuw i8, ptr %0, i64 8
  %8 = load ptr, ptr %7, align 8
  %9 = getelementptr inbounds nuw i8, ptr %8, i64 8
  %10 = load i64, ptr %9, align 8
  %.not20 = icmp eq i64 %10, 0
  br i1 %.not20, label %.critedge, label %11

11:                                               ; preds = %6
  %12 = getelementptr inbounds nuw i8, ptr %8, i64 16
  %.024 = load ptr, ptr %12, align 8
  %.not2125 = icmp eq ptr %.024, null
  br i1 %.not2125, label %.critedge, label %.lr.ph

.lr.ph:                                           ; preds = %11, %16
  %.026 = phi ptr [ %.0, %16 ], [ %.024, %11 ]
  %13 = getelementptr inbounds nuw i8, ptr %.026, i64 24
  %14 = load ptr, ptr %13, align 8
  %15 = tail call i32 @xstrcmp(ptr noundef nonnull %1, ptr noundef %14) #16
  %.not22 = icmp eq i32 %15, 0
  br i1 %.not22, label %18, label %16

16:                                               ; preds = %.lr.ph
  %17 = getelementptr inbounds nuw i8, ptr %.026, i64 8
  %.0 = load ptr, ptr %17, align 8
  %.not21 = icmp eq ptr %.0, null
  br i1 %.not21, label %.critedge, label %.lr.ph, !llvm.loop !15

18:                                               ; preds = %.lr.ph
  %19 = getelementptr inbounds nuw i8, ptr %.026, i64 16
  %20 = load ptr, ptr %19, align 8
  br label %.critedge

.critedge:                                        ; preds = %16, %11, %6, %3, %2, %18
  %.015 = phi ptr [ %20, %18 ], [ null, %2 ], [ null, %3 ], [ null, %6 ], [ null, %11 ], [ null, %16 ]
  ret ptr %.015
}